target datalayout = "e-m:e-p270:32:32-p271:32:32-p272:64:64-i64:64-i128:128-f80:128-n8:16:32:64-S128"
target triple = "x86_64-pc-linux-gnu"

%struct.anon = type { i32, ptr }

; Function Attrs: mustprogress nounwind uwtable
define ptr @mz_error(i32 noundef %0) #4 {
  %2 = alloca ptr, align 8
  %3 = alloca i32, align 4
  %4 = alloca i32, align 4
  store i32 %0, ptr %3, align 4
  store i32 0, ptr %4, align 4
  br label %5

5:                                                ; preds = %24, %1
  %6 = load i32, ptr %4, align 4
  %7 = zext i32 %6 to i64
  %8 = icmp ult i64 %7, 10
  br i1 %8, label %9, label %27

9:                                                ; preds = %5
  %10 = load i32, ptr %4, align 4
  %11 = zext i32 %10 to i64
  %12 = getelementptr inbounds [10 x %struct.anon], ptr @_ZZ8mz_errorE13s_error_descs, i64 0, i64 %11
  %13 = getelementptr inbounds %struct.anon, ptr %12, i32 0, i32 0
  %14 = load i32, ptr %13, align 16
  %15 = load i32, ptr %3, align 4
  %16 = icmp eq i32 %14, %15
  br i1 %16, label %17, label %23

17:                                               ; preds = %9
  %18 = load i32, ptr %4, align 4
  %19 = zext i32 %18 to i64
  %20 = getelementptr inbounds [10 x %struct.anon], ptr @_ZZ8mz_errorE13s_error_descs, i64 0, i64 %19
  %21 = getelementptr inbounds %struct.anon, ptr %20, i32 0, i32 1
  %22 = load ptr, ptr %21, align 8
  store ptr %22, ptr %2, align 8
  br label %28

23:                                               ; preds = %9
  br label %24

24:                                               ; preds = %23
  %25 = load i32, ptr %4, align 4
  %26 = add i32 %25, 1
  store i32 %26, ptr %4, align 4
  br label %5, !llvm.loop !98

27:                                               ; preds = %5
  store ptr null, ptr %2, align 8
  br label %28

28:                                               ; preds = %27, %17
  %29 = load ptr, ptr %2, align 8
  ret ptr %29
}