; Function Attrs: mustprogress nofree norecurse nosync nounwind willreturn memory(none) uwtable
define ptr @mz_error(i32 noundef %0) local_unnamed_addr #15 {
  br label %3

2:                                                ; preds = %3
  %indvars.iv.next = add nuw nsw i64 %indvars.iv, 1
  %exitcond.not = icmp eq i64 %indvars.iv.next, 10
  br i1 %exitcond.not, label %.loopexit, label %3, !llvm.loop !95

3:                                                ; preds = %1, %2
  %indvars.iv = phi i64 [ 0, %1 ], [ %indvars.iv.next, %2 ]
  %4 = getelementptr inbounds [10 x %struct.anon], ptr @_ZZ8mz_errorE13s_error_descs, i64 0, i64 %indvars.iv
  %5 = load i32, ptr %4, align 16
  %6 = icmp eq i32 %5, %0
  br i1 %6, label %7, label %2

7:                                                ; preds = %3
  %8 = getelementptr inbounds i8, ptr %4, i64 8
  %9 = load ptr, ptr %8, align 8
  br label %.loopexit

.loopexit:                                        ; preds = %2, %7
  %.05 = phi ptr [ %9, %7 ], [ null, %2 ]
  ret ptr %.05
}